; Function Attrs: mustprogress uwtable
define hidden void @_ZN2cv3hal12cpu_baseline9cvt16f32fEPKNS_6hfloatEPfi(ptr nocapture noundef readonly %0, ptr nocapture noundef writeonly %1, i32 noundef %2) local_unnamed_addr #0 personality ptr @__gxx_personality_v0 {
  %4 = alloca %"class.cv::utils::trace::details::Region", align 8
  call void @_ZN2cv5utils5trace7details6RegionC1ERKNS3_21LocationStaticStorageE(ptr noundef nonnull align 8 dereferenceable(12) %4, ptr noundef nonnull align 8 dereferenceable(32) @_ZZN2cv3hal12cpu_baseline9cvt16f32fEPKNS_6hfloatEPfiE24__cv_trace_location_fn40)
  %5 = icmp sgt i32 %2, 0
  br i1 %5, label %.lr.ph.preheader, label %._crit_edge

.lr.ph.preheader:                                 ; preds = %3
  %wide.trip.count = zext nneg i32 %2 to i64
  br label %.lr.ph

.lr.ph:                                           ; preds = %.lr.ph.preheader, %_ZNK2cv6hfloatcvfEv.exit
  %indvars.iv = phi i64 [ 0, %.lr.ph.preheader ], [ %indvars.iv.next, %_ZNK2cv6hfloatcvfEv.exit ]
  %6 = getelementptr inbounds %"class.cv::hfloat", ptr %0, i64 %indvars.iv
  %7 = load i16, ptr %6, align 2
  %8 = zext i16 %7 to i32
  %9 = shl nuw nsw i32 %8, 13
  %10 = and i32 %9, 268427264
  %11 = add nuw nsw i32 %10, 939524096
  %12 = and i32 %8, 31744
  switch i32 %12, label %_ZNK2cv6hfloatcvfEv.exit [
    i32 31744, label %13
    i32 0, label %15
  ]

13:                                               ; preds = %.lr.ph
  %14 = or i32 %9, 1879048192
  br label %_ZNK2cv6hfloatcvfEv.exit

15:                                               ; preds = %.lr.ph
  %16 = add nuw nsw i32 %10, 947912704
  %17 = bitcast i32 %16 to float
  %18 = fadd float %17, 0xBF10000000000000
  %19 = bitcast float %18 to i32
  br label %_ZNK2cv6hfloatcvfEv.exit

_ZNK2cv6hfloatcvfEv.exit:                         ; preds = %.lr.ph, %13, %15
  %20 = phi i32 [ %14, %13 ], [ %19, %15 ], [ %11, %.lr.ph ]
  %.signext.i = sext i16 %7 to i32
  %21 = and i32 %.signext.i, -2147483648
  %22 = or i32 %20, %21
  %23 = getelementptr inbounds float, ptr %1, i64 %indvars.iv
  store i32 %22, ptr %23, align 4
  %indvars.iv.next = add nuw nsw i64 %indvars.iv, 1
  %exitcond.not = icmp eq i64 %indvars.iv.next, %wide.trip.count
  br i1 %exitcond.not, label %._crit_edge, label %.lr.ph, !llvm.loop !4

._crit_edge:                                      ; preds = %_ZNK2cv6hfloatcvfEv.exit, %3
  %24 = getelementptr inbounds i8, ptr %4, i64 8
  %25 = load i32, ptr %24, align 8
  %.not.i = icmp eq i32 %25, 0
  br i1 %.not.i, label %_ZN2cv5utils5trace7details6RegionD2Ev.exit, label %26

26:                                               ; preds = %._crit_edge
  invoke void @_ZN2cv5utils5trace7details6Region7destroyEv(ptr noundef nonnull align 8 dereferenceable(12) %4)
          to label %_ZN2cv5utils5trace7details6RegionD2Ev.exit unwind label %27

27:                                               ; preds = %26
  %28 = landingpad { ptr, i32 }
          catch ptr null
  %29 = extractvalue { ptr, i32 } %28, 0
  call void @__clang_call_terminate(ptr %29) #14
  unreachable

_ZN2cv5utils5trace7details6RegionD2Ev.exit:       ; preds = %._crit_edge, %26
  ret void
}